; Function Attrs: mustprogress uwtable
define void @_ZN6marisa8grimoire4trie4Tail5read_ERNS0_2io6ReaderE(ptr noundef nonnull align 8 dereferenceable(256) %0, ptr noundef nonnull align 8 dereferenceable(25) %1) local_unnamed_addr #4 align 2 personality ptr @__gxx_personality_v0 {
  %3 = alloca %"class.marisa::grimoire::vector::Vector", align 16
  call void @llvm.lifetime.start.p0(i64 48, ptr nonnull %3)
  call void @llvm.memset.p0.i64(ptr noundef nonnull align 16 dereferenceable(41) %3, i8 0, i64 41, i1 false)
  invoke void @_ZN6marisa8grimoire6vector6VectorIcE5read_ERNS0_2io6ReaderE(ptr noundef nonnull align 8 dereferenceable(41) %3, ptr noundef nonnull align 8 dereferenceable(25) %1)
          to label %4 unwind label %25

4:                                                ; preds = %2
  %5 = load ptr, ptr %0, align 8
  %6 = getelementptr inbounds i8, ptr %0, i64 8
  %7 = getelementptr inbounds i8, ptr %3, i64 8
  %8 = load <2 x ptr>, ptr %3, align 16
  store ptr %5, ptr %3, align 16
  %9 = getelementptr inbounds i8, ptr %0, i64 16
  %10 = getelementptr inbounds i8, ptr %3, i64 16
  %11 = load ptr, ptr %10, align 16
  %12 = load <2 x ptr>, ptr %6, align 8
  store <2 x ptr> %8, ptr %0, align 8
  store ptr %11, ptr %9, align 8
  store <2 x ptr> %12, ptr %7, align 8
  %13 = getelementptr inbounds i8, ptr %0, i64 24
  %14 = getelementptr inbounds i8, ptr %3, i64 24
  %15 = load <2 x i64>, ptr %14, align 8
  %16 = load <2 x i64>, ptr %13, align 8
  store <2 x i64> %15, ptr %13, align 8
  store <2 x i64> %16, ptr %14, align 8
  %17 = getelementptr inbounds i8, ptr %0, i64 40
  %18 = getelementptr inbounds i8, ptr %3, i64 40
  %19 = load i8, ptr %17, align 8
  %20 = and i8 %19, 1
  %21 = load i8, ptr %18, align 8
  %22 = and i8 %21, 1
  store i8 %22, ptr %17, align 8
  store i8 %20, ptr %18, align 8
  %23 = icmp eq ptr %5, null
  br i1 %23, label %_ZN6marisa8grimoire6vector6VectorIcE4readERNS0_2io6ReaderE.exit, label %24

24:                                               ; preds = %4
  call void @_ZdaPv(ptr noundef nonnull %5) #16
  br label %_ZN6marisa8grimoire6vector6VectorIcE4readERNS0_2io6ReaderE.exit

25:                                               ; preds = %2
  %26 = landingpad { ptr, i32 }
          cleanup
  %27 = load ptr, ptr %3, align 16
  %28 = icmp eq ptr %27, null
  br i1 %28, label %_ZN6marisa8grimoire6vector6VectorIcED2Ev.exit3.i, label %29

29:                                               ; preds = %25
  call void @_ZdaPv(ptr noundef nonnull %27) #16
  br label %_ZN6marisa8grimoire6vector6VectorIcED2Ev.exit3.i

_ZN6marisa8grimoire6vector6VectorIcED2Ev.exit3.i: ; preds = %29, %25
  resume { ptr, i32 } %26

_ZN6marisa8grimoire6vector6VectorIcE4readERNS0_2io6ReaderE.exit: ; preds = %4, %24
  call void @llvm.lifetime.end.p0(i64 48, ptr nonnull %3)
  %30 = getelementptr inbounds i8, ptr %0, i64 48
  call void @_ZN6marisa8grimoire6vector9BitVector4readERNS0_2io6ReaderE(ptr noundef nonnull align 8 dereferenceable(208) %30, ptr noundef nonnull align 8 dereferenceable(25) %1)
  ret void
}